target datalayout = "e-m:e-p270:32:32-p271:32:32-p272:64:64-i64:64-i128:128-f80:128-n8:16:32:64-S128"
target triple = "x86_64-pc-linux-gnu"

; Function Attrs: nounwind uwtable
define i32 @VP8CheckSignature(ptr noundef %0, i64 noundef %1) #0 {
  %3 = alloca ptr, align 8
  %4 = alloca i64, align 8
  store ptr %0, ptr %3, align 8, !tbaa !37
  store i64 %1, ptr %4, align 8, !tbaa !38
  %5 = load i64, ptr %4, align 8, !tbaa !38
  %6 = icmp uge i64 %5, 3
  br i1 %6, label %7, label %25

7:                                                ; preds = %2
  %8 = load ptr, ptr %3, align 8, !tbaa !37
  %9 = getelementptr inbounds i8, ptr %8, i64 0
  %10 = load i8, ptr %9, align 1, !tbaa !39
  %11 = zext i8 %10 to i32
  %12 = icmp eq i32 %11, 157
  br i1 %12, label %13, label %25

13:                                               ; preds = %7
  %14 = load ptr, ptr %3, align 8, !tbaa !37
  %15 = getelementptr inbounds i8, ptr %14, i64 1
  %16 = load i8, ptr %15, align 1, !tbaa !39
  %17 = zext i8 %16 to i32
  %18 = icmp eq i32 %17, 1
  br i1 %18, label %19, label %25

19:                                               ; preds = %13
  %20 = load ptr, ptr %3, align 8, !tbaa !37
  %21 = getelementptr inbounds i8, ptr %20, i64 2
  %22 = load i8, ptr %21, align 1, !tbaa !39
  %23 = zext i8 %22 to i32
  %24 = icmp eq i32 %23, 42
  br label %25

25:                                               ; preds = %19, %13, %7, %2
  %26 = phi i1 [ false, %13 ], [ false, %7 ], [ false, %2 ], [ %24, %19 ]
  %27 = zext i1 %26 to i32
  ret i32 %27
}