; Function Attrs: mustprogress nofree norecurse nosync nounwind willreturn memory(argmem: read) uwtable
define range(i32 0, 2) i32 @VP8CheckSignature(ptr noundef readonly captures(none) %0, i64 noundef %1) local_unnamed_addr #6 {
  %3 = icmp ugt i64 %1, 2
  br i1 %3, label %4, label %16

4:                                                ; preds = %2
  %5 = load i8, ptr %0, align 1, !tbaa !31
  %6 = icmp eq i8 %5, -99
  br i1 %6, label %7, label %16

7:                                                ; preds = %4
  %8 = getelementptr inbounds nuw i8, ptr %0, i64 1
  %9 = load i8, ptr %8, align 1, !tbaa !31
  %10 = icmp eq i8 %9, 1
  br i1 %10, label %11, label %16

11:                                               ; preds = %7
  %12 = getelementptr inbounds nuw i8, ptr %0, i64 2
  %13 = load i8, ptr %12, align 1, !tbaa !31
  %14 = icmp eq i8 %13, 42
  %15 = zext i1 %14 to i32
  br label %16

16:                                               ; preds = %11, %7, %4, %2
  %17 = phi i32 [ 0, %7 ], [ 0, %4 ], [ 0, %2 ], [ %15, %11 ]
  ret i32 %17
}